target datalayout = "e-m:e-p270:32:32-p271:32:32-p272:64:64-i64:64-i128:128-f80:128-n8:16:32:64-S128"
target triple = "x86_64-pc-linux-gnu"

%struct.stream_key = type { ptr, i32 }
%struct.stream = type { ptr, ptr, i32, i32, i32 }

@.str = private unnamed_addr constant [29 x i8] c"%s:%u: failed assertion \22%s\22\00", align 1
@.str.1 = private unnamed_addr constant [14 x i8] c"epan/stream.c\00", align 1
@.str.2 = private unnamed_addr constant [21 x i8] c"stream == ((void*)0)\00", align 1
@stream_hash = internal global ptr null, align 8

; Function Attrs: null_pointer_is_valid sspstrong uwtable
define internal ptr @new_stream(ptr noundef %0) #0 {
  %2 = alloca ptr, align 8
  %3 = alloca ptr, align 8
  store ptr %0, ptr %2, align 8
  call void @llvm.lifetime.start.p0(i64 8, ptr %3) #6
  %4 = call ptr @wmem_file_scope()
  %5 = call noalias ptr @wmem_alloc(ptr noundef %4, i64 noundef 32) #8
  store ptr %5, ptr %3, align 8
  %6 = load ptr, ptr %2, align 8
  %7 = load ptr, ptr %3, align 8
  %8 = getelementptr inbounds nuw %struct.stream, ptr %7, i32 0, i32 0
  store ptr %6, ptr %8, align 8
  %9 = load ptr, ptr %3, align 8
  %10 = getelementptr inbounds nuw %struct.stream, ptr %9, i32 0, i32 2
  store i32 0, ptr %10, align 8
  %11 = load ptr, ptr %3, align 8
  %12 = getelementptr inbounds nuw %struct.stream, ptr %11, i32 0, i32 1
  store ptr null, ptr %12, align 8
  %13 = load ptr, ptr %3, align 8
  %14 = getelementptr inbounds nuw %struct.stream, ptr %13, i32 0, i32 3
  store i32 0, ptr %14, align 4
  %15 = load ptr, ptr %3, align 8
  %16 = getelementptr inbounds nuw %struct.stream, ptr %15, i32 0, i32 4
  store i32 0, ptr %16, align 8
  %17 = load ptr, ptr @stream_hash, align 8
  %18 = load ptr, ptr %2, align 8
  %19 = load ptr, ptr %3, align 8
  %20 = call i32 @g_hash_table_insert(ptr noundef %17, ptr noundef %18, ptr noundef %19)
  %21 = load ptr, ptr %3, align 8
  call void @llvm.lifetime.end.p0(i64 8, ptr %3) #6
  ret ptr %21
}

; Function Attrs: null_pointer_is_valid sspstrong uwtable
define internal ptr @stream_hash_insert(ptr noundef %0, i32 noundef %1) #0 {
  %3 = alloca ptr, align 8
  %4 = alloca i32, align 4
  %5 = alloca ptr, align 8
  store ptr %0, ptr %3, align 8
  store i32 %1, ptr %4, align 4
  call void @llvm.lifetime.start.p0(i64 8, ptr %5) #6
  %6 = call ptr @wmem_file_scope()
  %7 = call noalias ptr @wmem_alloc(ptr noundef %6, i64 noundef 16) #8
  store ptr %7, ptr %5, align 8
  %8 = load ptr, ptr %3, align 8
  %9 = load ptr, ptr %5, align 8
  %10 = getelementptr inbounds nuw %struct.stream_key, ptr %9, i32 0, i32 0
  store ptr %8, ptr %10, align 8
  %11 = load i32, ptr %4, align 4
  %12 = load ptr, ptr %5, align 8
  %13 = getelementptr inbounds nuw %struct.stream_key, ptr %12, i32 0, i32 1
  store i32 %11, ptr %13, align 8
  %14 = load ptr, ptr %5, align 8
  %15 = call ptr @new_stream(ptr noundef %14)
  call void @llvm.lifetime.end.p0(i64 8, ptr %5) #6
  ret ptr %15
}

; Function Attrs: null_pointer_is_valid sspstrong uwtable
define internal ptr @stream_hash_lookup(ptr noundef %0, i32 noundef %1) #0 {
  %3 = alloca ptr, align 8
  %4 = alloca i32, align 4
  %5 = alloca %struct.stream_key, align 8
  store ptr %0, ptr %3, align 8
  store i32 %1, ptr %4, align 4
  call void @llvm.lifetime.start.p0(i64 16, ptr %5) #6
  %6 = load ptr, ptr %3, align 8
  %7 = getelementptr inbounds nuw %struct.stream_key, ptr %5, i32 0, i32 0
  store ptr %6, ptr %7, align 8
  %8 = load i32, ptr %4, align 4
  %9 = getelementptr inbounds nuw %struct.stream_key, ptr %5, i32 0, i32 1
  store i32 %8, ptr %9, align 8
  %10 = load ptr, ptr @stream_hash, align 8
  %11 = call ptr @g_hash_table_lookup(ptr noundef %10, ptr noundef %5)
  call void @llvm.lifetime.end.p0(i64 16, ptr %5) #6
  ret ptr %11
}

; Function Attrs: null_pointer_is_valid sspstrong uwtable
define ptr @stream_new(ptr noundef %0, i32 noundef %1) #0 {
  %3 = alloca ptr, align 8
  %4 = alloca i32, align 4
  %5 = alloca ptr, align 8
  store ptr %0, ptr %3, align 8
  store i32 %1, ptr %4, align 4
  call void @llvm.lifetime.start.p0(i64 8, ptr %5) #6
  %6 = load ptr, ptr %3, align 8
  %7 = load i32, ptr %4, align 4
  %8 = call ptr @stream_hash_lookup(ptr noundef %6, i32 noundef %7)
  store ptr %8, ptr %5, align 8
  %9 = load ptr, ptr %5, align 8
  %10 = icmp eq ptr %9, null
  br i1 %10, label %11, label %12

11:                                               ; preds = %2
  br label %14

12:                                               ; preds = %2
  call void (ptr, ...) @proto_report_dissector_bug(ptr noundef @.str, ptr noundef @.str.1, i32 noundef 281, ptr noundef @.str.2) #7
  unreachable

13:                                               ; No predecessors!
  br label %14

14:                                               ; preds = %13, %11
  %15 = load ptr, ptr %3, align 8
  %16 = load i32, ptr %4, align 4
  %17 = call ptr @stream_hash_insert(ptr noundef %15, i32 noundef %16)
  store ptr %17, ptr %5, align 8
  %18 = load ptr, ptr %5, align 8
  call void @llvm.lifetime.end.p0(i64 8, ptr %5) #6
  ret ptr %18
}