; Function Attrs: null_pointer_is_valid sspstrong uwtable
define noundef ptr @stream_new(ptr noundef %0, i32 noundef %1) local_unnamed_addr #0 {
  %3 = alloca %struct.stream_key, align 8
  call void @llvm.lifetime.start.p0(i64 16, ptr nonnull %3) #7
  store ptr %0, ptr %3, align 8
  %4 = getelementptr inbounds nuw i8, ptr %3, i64 8
  store i32 %1, ptr %4, align 8
  %5 = load ptr, ptr @stream_hash, align 8
  %6 = call ptr @g_hash_table_lookup(ptr noundef %5, ptr noundef nonnull %3)
  call void @llvm.lifetime.end.p0(i64 16, ptr nonnull %3) #7
  %7 = icmp eq ptr %6, null
  br i1 %7, label %9, label %8

8:                                                ; preds = %2
  call void (ptr, ...) @proto_report_dissector_bug(ptr noundef nonnull @.str, ptr noundef nonnull @.str.1, i32 noundef 281, ptr noundef nonnull @.str.2) #8
  unreachable

9:                                                ; preds = %2
  %10 = call ptr @wmem_file_scope()
  %11 = call noalias dereferenceable_or_null(16) ptr @wmem_alloc(ptr noundef %10, i64 noundef 16) #9
  store ptr %0, ptr %11, align 8
  %12 = getelementptr inbounds nuw i8, ptr %11, i64 8
  store i32 %1, ptr %12, align 8
  %13 = call ptr @wmem_file_scope()
  %14 = call noalias dereferenceable_or_null(32) ptr @wmem_alloc(ptr noundef %13, i64 noundef 32) #9
  store ptr %11, ptr %14, align 8
  %15 = getelementptr inbounds nuw i8, ptr %14, i64 8
  call void @llvm.memset.p0.i64(ptr noundef nonnull align 8 dereferenceable(20) %15, i8 0, i64 20, i1 false)
  %16 = load ptr, ptr @stream_hash, align 8
  %17 = call i32 @g_hash_table_insert(ptr noundef %16, ptr noundef %11, ptr noundef %14)
  ret ptr %14
}